target datalayout = "e-m:e-p270:32:32-p271:32:32-p272:64:64-i64:64-i128:128-f80:128-n8:16:32:64-S128"
target triple = "x86_64-pc-linux-gnu"

%struct.URLContext = type { ptr, ptr, ptr, ptr, i32, i32, i32, i32, %struct.AVIOInterruptCB, i64, ptr, ptr, i32 }
%struct.AVIOInterruptCB = type { ptr, ptr }
%struct.RTMPContext = type { ptr, ptr, [2 x ptr], [2 x i32], i32, i32, i32, ptr, i32, ptr, ptr, i32, i32, ptr, i32, i32, i32, %struct.RTMPPacket, i32, i64, i64, i32, i32, i32, i32, i32, [11 x i8], i32, i32, ptr, ptr, ptr, i32, i32, ptr, ptr, [42 x i8], ptr, ptr, i32, i32, i32, i32, ptr, i32, i32, i32, i32, i32, double, i32, ptr, [50 x i8], [50 x i8], [500 x i8], i32, i32 }
%struct.RTMPPacket = type { i32, i32, i32, i32, i32, ptr, i32, i32, i32 }
%struct.PutByteContext = type { ptr, ptr, ptr, i32 }

@.str.84 = private unnamed_addr constant [30 x i8] c"Assertion %s failed at %s:%d\0A\00", align 1
@.str.85 = private unnamed_addr constant [14 x i8] c"buf_size >= 0\00", align 1
@.str.86 = private unnamed_addr constant [26 x i8] c"./libavcodec/bytestream.h\00", align 1
@.str.184 = private unnamed_addr constant [34 x i8] c"Unable to create response packet\0A\00", align 1

; Function Attrs: alwaysinline nounwind willreturn memory(none) uwtable
define internal i32 @av_bswap32(i32 noundef %0) #9 {
  %2 = alloca i32, align 4
  store i32 %0, ptr %2, align 4, !tbaa !11
  %3 = load i32, ptr %2, align 4, !tbaa !11
  %4 = shl i32 %3, 8
  %5 = and i32 %4, 65280
  %6 = load i32, ptr %2, align 4, !tbaa !11
  %7 = lshr i32 %6, 8
  %8 = and i32 %7, 255
  %9 = or i32 %5, %8
  %10 = shl i32 %9, 16
  %11 = load i32, ptr %2, align 4, !tbaa !11
  %12 = lshr i32 %11, 16
  %13 = shl i32 %12, 8
  %14 = and i32 %13, 65280
  %15 = load i32, ptr %2, align 4, !tbaa !11
  %16 = lshr i32 %15, 16
  %17 = lshr i32 %16, 8
  %18 = and i32 %17, 255
  %19 = or i32 %14, %18
  %20 = or i32 %10, %19
  ret i32 %20
}

; Function Attrs: alwaysinline nounwind willreturn memory(none) uwtable
define internal zeroext i16 @av_bswap16(i16 noundef zeroext %0) #9 {
  %2 = alloca i16, align 2
  store i16 %0, ptr %2, align 2, !tbaa !133
  %3 = load i16, ptr %2, align 2, !tbaa !133
  %4 = zext i16 %3 to i32
  %5 = ashr i32 %4, 8
  %6 = load i16, ptr %2, align 2, !tbaa !133
  %7 = zext i16 %6 to i32
  %8 = shl i32 %7, 8
  %9 = or i32 %5, %8
  %10 = trunc i32 %9 to i16
  store i16 %10, ptr %2, align 2, !tbaa !133
  %11 = load i16, ptr %2, align 2, !tbaa !133
  ret i16 %11
}

; Function Attrs: alwaysinline nounwind uwtable
define internal void @bytestream2_put_be32(ptr noundef %0, i32 noundef %1) #8 {
  %3 = alloca ptr, align 8
  %4 = alloca i32, align 4
  store ptr %0, ptr %3, align 8, !tbaa !150
  store i32 %1, ptr %4, align 4, !tbaa !11
  %5 = load ptr, ptr %3, align 8, !tbaa !150
  %6 = getelementptr inbounds nuw %struct.PutByteContext, ptr %5, i32 0, i32 3
  %7 = load i32, ptr %6, align 8, !tbaa !156
  %8 = icmp ne i32 %7, 0
  br i1 %8, label %30, label %9

9:                                                ; preds = %2
  %10 = load ptr, ptr %3, align 8, !tbaa !150
  %11 = getelementptr inbounds nuw %struct.PutByteContext, ptr %10, i32 0, i32 1
  %12 = load ptr, ptr %11, align 8, !tbaa !155
  %13 = load ptr, ptr %3, align 8, !tbaa !150
  %14 = getelementptr inbounds nuw %struct.PutByteContext, ptr %13, i32 0, i32 0
  %15 = load ptr, ptr %14, align 8, !tbaa !152
  %16 = ptrtoint ptr %12 to i64
  %17 = ptrtoint ptr %15 to i64
  %18 = sub i64 %16, %17
  %19 = icmp sge i64 %18, 4
  br i1 %19, label %20, label %30

20:                                               ; preds = %9
  %21 = load i32, ptr %4, align 4, !tbaa !11
  %22 = call i32 @av_bswap32(i32 noundef %21) #14
  %23 = load ptr, ptr %3, align 8, !tbaa !150
  %24 = getelementptr inbounds nuw %struct.PutByteContext, ptr %23, i32 0, i32 0
  %25 = load ptr, ptr %24, align 8, !tbaa !152
  store i32 %22, ptr %25, align 1, !tbaa !32
  %26 = load ptr, ptr %3, align 8, !tbaa !150
  %27 = getelementptr inbounds nuw %struct.PutByteContext, ptr %26, i32 0, i32 0
  %28 = load ptr, ptr %27, align 8, !tbaa !152
  %29 = getelementptr inbounds i8, ptr %28, i64 4
  store ptr %29, ptr %27, align 8, !tbaa !152
  br label %33

30:                                               ; preds = %9, %2
  %31 = load ptr, ptr %3, align 8, !tbaa !150
  %32 = getelementptr inbounds nuw %struct.PutByteContext, ptr %31, i32 0, i32 3
  store i32 1, ptr %32, align 8, !tbaa !156
  br label %33

33:                                               ; preds = %30, %20
  ret void
}

; Function Attrs: alwaysinline nounwind uwtable
define internal void @bytestream2_put_be16(ptr noundef %0, i32 noundef %1) #8 {
  %3 = alloca ptr, align 8
  %4 = alloca i32, align 4
  store ptr %0, ptr %3, align 8, !tbaa !150
  store i32 %1, ptr %4, align 4, !tbaa !11
  %5 = load ptr, ptr %3, align 8, !tbaa !150
  %6 = getelementptr inbounds nuw %struct.PutByteContext, ptr %5, i32 0, i32 3
  %7 = load i32, ptr %6, align 8, !tbaa !156
  %8 = icmp ne i32 %7, 0
  br i1 %8, label %31, label %9

9:                                                ; preds = %2
  %10 = load ptr, ptr %3, align 8, !tbaa !150
  %11 = getelementptr inbounds nuw %struct.PutByteContext, ptr %10, i32 0, i32 1
  %12 = load ptr, ptr %11, align 8, !tbaa !155
  %13 = load ptr, ptr %3, align 8, !tbaa !150
  %14 = getelementptr inbounds nuw %struct.PutByteContext, ptr %13, i32 0, i32 0
  %15 = load ptr, ptr %14, align 8, !tbaa !152
  %16 = ptrtoint ptr %12 to i64
  %17 = ptrtoint ptr %15 to i64
  %18 = sub i64 %16, %17
  %19 = icmp sge i64 %18, 2
  br i1 %19, label %20, label %31

20:                                               ; preds = %9
  %21 = load i32, ptr %4, align 4, !tbaa !11
  %22 = trunc i32 %21 to i16
  %23 = call zeroext i16 @av_bswap16(i16 noundef zeroext %22) #14
  %24 = load ptr, ptr %3, align 8, !tbaa !150
  %25 = getelementptr inbounds nuw %struct.PutByteContext, ptr %24, i32 0, i32 0
  %26 = load ptr, ptr %25, align 8, !tbaa !152
  store i16 %23, ptr %26, align 1, !tbaa !32
  %27 = load ptr, ptr %3, align 8, !tbaa !150
  %28 = getelementptr inbounds nuw %struct.PutByteContext, ptr %27, i32 0, i32 0
  %29 = load ptr, ptr %28, align 8, !tbaa !152
  %30 = getelementptr inbounds i8, ptr %29, i64 2
  store ptr %30, ptr %28, align 8, !tbaa !152
  br label %34

31:                                               ; preds = %9, %2
  %32 = load ptr, ptr %3, align 8, !tbaa !150
  %33 = getelementptr inbounds nuw %struct.PutByteContext, ptr %32, i32 0, i32 3
  store i32 1, ptr %33, align 8, !tbaa !156
  br label %34

34:                                               ; preds = %31, %20
  ret void
}

; Function Attrs: alwaysinline nounwind uwtable
define internal void @bytestream2_init_writer(ptr noundef %0, ptr noundef %1, i32 noundef %2) #8 {
  %4 = alloca ptr, align 8
  %5 = alloca ptr, align 8
  %6 = alloca i32, align 4
  store ptr %0, ptr %4, align 8, !tbaa !150
  store ptr %1, ptr %5, align 8, !tbaa !9
  store i32 %2, ptr %6, align 4, !tbaa !11
  br label %7

7:                                                ; preds = %3
  %8 = load i32, ptr %6, align 4, !tbaa !11
  %9 = icmp sge i32 %8, 0
  br i1 %9, label %11, label %10

10:                                               ; preds = %7
  call void (ptr, i32, ptr, ...) @av_log(ptr noundef null, i32 noundef 0, ptr noundef @.str.84, ptr noundef @.str.85, ptr noundef @.str.86, i32 noundef 151)
  call void @abort() #15
  unreachable

11:                                               ; preds = %7
  br label %12

12:                                               ; preds = %11
  %13 = load ptr, ptr %5, align 8, !tbaa !9
  %14 = load ptr, ptr %4, align 8, !tbaa !150
  %15 = getelementptr inbounds nuw %struct.PutByteContext, ptr %14, i32 0, i32 0
  store ptr %13, ptr %15, align 8, !tbaa !152
  %16 = load ptr, ptr %5, align 8, !tbaa !9
  %17 = load ptr, ptr %4, align 8, !tbaa !150
  %18 = getelementptr inbounds nuw %struct.PutByteContext, ptr %17, i32 0, i32 2
  store ptr %16, ptr %18, align 8, !tbaa !154
  %19 = load ptr, ptr %5, align 8, !tbaa !9
  %20 = load i32, ptr %6, align 4, !tbaa !11
  %21 = sext i32 %20 to i64
  %22 = getelementptr inbounds i8, ptr %19, i64 %21
  %23 = load ptr, ptr %4, align 8, !tbaa !150
  %24 = getelementptr inbounds nuw %struct.PutByteContext, ptr %23, i32 0, i32 1
  store ptr %22, ptr %24, align 8, !tbaa !155
  %25 = load ptr, ptr %4, align 8, !tbaa !150
  %26 = getelementptr inbounds nuw %struct.PutByteContext, ptr %25, i32 0, i32 3
  store i32 0, ptr %26, align 8, !tbaa !156
  ret void
}

; Function Attrs: nounwind uwtable
define internal i32 @write_begin(ptr noundef %0) #0 {
  %2 = alloca i32, align 4
  %3 = alloca ptr, align 8
  %4 = alloca ptr, align 8
  %5 = alloca %struct.PutByteContext, align 8
  %6 = alloca %struct.RTMPPacket, align 8
  %7 = alloca i32, align 4
  %8 = alloca i32, align 4
  store ptr %0, ptr %3, align 8, !tbaa !4
  call void @llvm.lifetime.start.p0(i64 8, ptr %4) #12
  %9 = load ptr, ptr %3, align 8, !tbaa !4
  %10 = getelementptr inbounds nuw %struct.URLContext, ptr %9, i32 0, i32 2
  %11 = load ptr, ptr %10, align 8, !tbaa !16
  store ptr %11, ptr %4, align 8, !tbaa !22
  call void @llvm.lifetime.start.p0(i64 32, ptr %5) #12
  call void @llvm.lifetime.start.p0(i64 48, ptr %6) #12
  call void @llvm.memset.p0.i64(ptr align 8 %6, i8 0, i64 48, i1 false)
  call void @llvm.lifetime.start.p0(i64 4, ptr %7) #12
  %12 = call i32 @ff_rtmp_packet_create(ptr noundef %6, i32 noundef 2, i32 noundef 4, i32 noundef 0, i32 noundef 6)
  store i32 %12, ptr %7, align 4, !tbaa !11
  %13 = icmp slt i32 %12, 0
  br i1 %13, label %14, label %17

14:                                               ; preds = %1
  %15 = load ptr, ptr %3, align 8, !tbaa !4
  call void (ptr, i32, ptr, ...) @av_log(ptr noundef %15, i32 noundef 16, ptr noundef @.str.184)
  %16 = load i32, ptr %7, align 4, !tbaa !11
  store i32 %16, ptr %2, align 4
  store i32 1, ptr %8, align 4
  br label %39

17:                                               ; preds = %1
  %18 = getelementptr inbounds nuw %struct.RTMPPacket, ptr %6, i32 0, i32 5
  %19 = load ptr, ptr %18, align 8, !tbaa !90
  %20 = getelementptr inbounds nuw %struct.RTMPPacket, ptr %6, i32 0, i32 6
  %21 = load i32, ptr %20, align 8, !tbaa !97
  call void @bytestream2_init_writer(ptr noundef %5, ptr noundef %19, i32 noundef %21)
  call void @bytestream2_put_be16(ptr noundef %5, i32 noundef 0)
  %22 = load ptr, ptr %4, align 8, !tbaa !22
  %23 = getelementptr inbounds nuw %struct.RTMPContext, ptr %22, i32 0, i32 48
  %24 = load i32, ptr %23, align 8, !tbaa !71
  call void @bytestream2_put_be32(ptr noundef %5, i32 noundef %24)
  %25 = load ptr, ptr %4, align 8, !tbaa !22
  %26 = getelementptr inbounds nuw %struct.RTMPContext, ptr %25, i32 0, i32 1
  %27 = load ptr, ptr %26, align 8, !tbaa !65
  %28 = load ptr, ptr %4, align 8, !tbaa !22
  %29 = getelementptr inbounds nuw %struct.RTMPContext, ptr %28, i32 0, i32 5
  %30 = load i32, ptr %29, align 4, !tbaa !39
  %31 = load ptr, ptr %4, align 8, !tbaa !22
  %32 = getelementptr inbounds nuw %struct.RTMPContext, ptr %31, i32 0, i32 2
  %33 = getelementptr inbounds [2 x ptr], ptr %32, i64 0, i64 1
  %34 = load ptr, ptr %4, align 8, !tbaa !22
  %35 = getelementptr inbounds nuw %struct.RTMPContext, ptr %34, i32 0, i32 3
  %36 = getelementptr inbounds [2 x i32], ptr %35, i64 0, i64 1
  %37 = call i32 @ff_rtmp_packet_write(ptr noundef %27, ptr noundef %6, i32 noundef %30, ptr noundef %33, ptr noundef %36)
  store i32 %37, ptr %7, align 4, !tbaa !11
  call void @ff_rtmp_packet_destroy(ptr noundef %6)
  %38 = load i32, ptr %7, align 4, !tbaa !11
  store i32 %38, ptr %2, align 4
  store i32 1, ptr %8, align 4
  br label %39

39:                                               ; preds = %17, %14
  call void @llvm.lifetime.end.p0(i64 4, ptr %7) #12
  call void @llvm.lifetime.end.p0(i64 48, ptr %6) #12
  call void @llvm.lifetime.end.p0(i64 32, ptr %5) #12
  call void @llvm.lifetime.end.p0(i64 8, ptr %4) #12
  %40 = load i32, ptr %2, align 4
  ret i32 %40
}