; Function Attrs: nounwind uwtable
define internal fastcc i32 @write_begin(ptr noundef %0) unnamed_addr #0 {
  %2 = alloca %struct.RTMPPacket, align 8
  %3 = getelementptr inbounds nuw i8, ptr %0, i64 16
  %4 = load ptr, ptr %3, align 8, !tbaa !4
  call void @llvm.lifetime.start.p0(i64 48, ptr nonnull %2) #11
  call void @llvm.memset.p0.i64(ptr noundef nonnull align 8 dereferenceable(48) %2, i8 0, i64 48, i1 false)
  %5 = call i32 @ff_rtmp_packet_create(ptr noundef nonnull %2, i32 noundef 2, i32 noundef 4, i32 noundef 0, i32 noundef 6) #11
  %6 = icmp slt i32 %5, 0
  br i1 %6, label %7, label %8

7:                                                ; preds = %1
  call void (ptr, i32, ptr, ...) @av_log(ptr noundef nonnull %0, i32 noundef 16, ptr noundef nonnull @.str.184) #11
  br label %31

8:                                                ; preds = %1
  %9 = getelementptr inbounds nuw i8, ptr %2, i64 24
  %10 = load ptr, ptr %9, align 8, !tbaa !63
  %11 = getelementptr inbounds nuw i8, ptr %2, i64 32
  %12 = load i32, ptr %11, align 8, !tbaa !70
  %13 = icmp sgt i32 %12, -1
  br i1 %13, label %15, label %14

14:                                               ; preds = %8
  call void (ptr, i32, ptr, ...) @av_log(ptr noundef null, i32 noundef 0, ptr noundef nonnull @.str.84, ptr noundef nonnull @.str.85, ptr noundef nonnull @.str.86, i32 noundef 151) #11
  call void @abort() #13
  unreachable

15:                                               ; preds = %8
  %16 = icmp samesign ugt i32 %12, 1
  br i1 %16, label %17, label %bytestream2_put_be32.exit

17:                                               ; preds = %15
  store i16 0, ptr %10, align 1, !tbaa !24
  %18 = icmp samesign ugt i32 %12, 5
  br i1 %18, label %19, label %bytestream2_put_be32.exit

19:                                               ; preds = %17
  %20 = getelementptr inbounds nuw i8, ptr %10, i64 2
  %21 = getelementptr inbounds nuw i8, ptr %4, i64 384
  %22 = load i32, ptr %21, align 8, !tbaa !121
  %23 = call i32 @llvm.bswap.i32(i32 %22)
  store i32 %23, ptr %20, align 1, !tbaa !24
  br label %bytestream2_put_be32.exit

bytestream2_put_be32.exit:                        ; preds = %15, %17, %19
  %24 = getelementptr inbounds nuw i8, ptr %4, i64 8
  %25 = load ptr, ptr %24, align 8, !tbaa !46
  %26 = getelementptr inbounds nuw i8, ptr %4, i64 44
  %27 = load i32, ptr %26, align 4, !tbaa !51
  %28 = getelementptr inbounds nuw i8, ptr %4, i64 24
  %29 = getelementptr inbounds nuw i8, ptr %4, i64 36
  %30 = call i32 @ff_rtmp_packet_write(ptr noundef %25, ptr noundef nonnull %2, i32 noundef %27, ptr noundef nonnull %28, ptr noundef nonnull %29) #11
  call void @ff_rtmp_packet_destroy(ptr noundef nonnull %2) #11
  br label %31

31:                                               ; preds = %bytestream2_put_be32.exit, %7
  %.0 = phi i32 [ %5, %7 ], [ %30, %bytestream2_put_be32.exit ]
  call void @llvm.lifetime.end.p0(i64 48, ptr nonnull %2) #11
  ret i32 %.0
}